; Function Attrs: nounwind uwtable
define ptr @JNU_ToString(ptr noundef %0, ptr noundef %1) local_unnamed_addr #0 {
  %3 = icmp eq ptr %1, null
  br i1 %3, label %4, label %9

4:                                                ; preds = %2
  %5 = load ptr, ptr %0, align 8
  %6 = getelementptr inbounds i8, ptr %5, i64 1336
  %7 = load ptr, ptr %6, align 8
  %8 = tail call ptr %7(ptr noundef nonnull %0, ptr noundef nonnull @.str.36) #10
  br label %12

9:                                                ; preds = %2
  %10 = tail call i64 (ptr, ptr, ptr, ptr, ptr, ...) @JNU_CallMethodByName(ptr noundef %0, ptr noundef null, ptr noundef nonnull %1, ptr noundef nonnull @.str.37, ptr noundef nonnull @.str.38)
  %11 = inttoptr i64 %10 to ptr
  br label %12

12:                                               ; preds = %9, %4
  %.0 = phi ptr [ %8, %4 ], [ %11, %9 ]
  ret ptr %.0
}